(dp0
Vengine
p1
Vpdflatex
p2
sVpackages
p3
c__builtin__
set
p4
((lp5
Vfancyhdr
p6
aVgeometry
p7
aVlistings
p8
aVamsmath
p9
aVamsthm
p10
aVenumerate
p11
aVamsfonts
p12
aVamssymb
p13
aVgraphicx
p14
aVcolor
p15
aVparskip
p16
atp17
Rp18
sVfiles_with_guttermarks
p19
g4
((lp20
S'Problem Set 2.tex'
p21
atp22
Rp23
sVsynctex
p24
I01
s.